ARM GAS  C:\Users\Matteo\AppData\Local\Temp\ccvDShDg.s 			page 1


   1              		.syntax unified
   2              		.cpu cortex-m3
   3              		.fpu softvfp
   4              		.eabi_attribute 20, 1
   5              		.eabi_attribute 21, 1
   6              		.eabi_attribute 23, 3
   7              		.eabi_attribute 24, 1
   8              		.eabi_attribute 25, 1
   9              		.eabi_attribute 26, 1
  10              		.eabi_attribute 30, 1
  11              		.eabi_attribute 34, 1
  12              		.eabi_attribute 18, 4
  13              		.thumb
  14              		.syntax unified
  15              		.file	"main.c"
  16              		.text
  17              	.Ltext0:
  18              		.cfi_sections	.debug_frame
  19              		.section	.text.main,"ax",%progbits
  20              		.align	2
  21              		.global	main
  22              		.thumb
  23              		.thumb_func
  24              		.type	main, %function
  25              	main:
  26              	.LFB64:
  27              		.file 1 "main.c"
   1:main.c        **** /* ========================================
   2:main.c        ****  *
   3:main.c        ****  * Politecnico di Milano 
   4:main.c        ****  * LTEBS A.Y. 2023/24 
   5:main.c        ****  * Mentasti, Pettenella, Salama, Vacca
   6:main.c        ****  *
   7:main.c        ****  * ========================================
   8:main.c        **** */
   9:main.c        **** 
  10:main.c        **** // Include header files
  11:main.c        **** #include "global_variables.h"
  12:main.c        **** #include "InterruptRoutines.h"
  13:main.c        **** #include <stdlib.h>
  14:main.c        **** #include "C:\Users\Matteo\Desktop\Oled-Psoc5\OLED.cydsn\ssd1306.h"
  15:main.c        **** // OLED display address
  16:main.c        **** #define DISPLAY_ADDRESS 0x3D // 011110+SA0+RW - 0x3C or 0x3D 
  17:main.c        **** // Define EEPROM variables
  18:main.c        **** #define WRITE_EEPROM 0
  19:main.c        **** #define R_LED_EEPROM_ADDRESS 0x00
  20:main.c        **** #define G_LED_EEPROM_ADDRESS 0x01
  21:main.c        **** #define B_LED_EEPROM_ADDRESS 0x02
  22:main.c        **** #define BUZZ_EEPROM_ADDRESS 0x03
  23:main.c        **** #define OLED_EEPROM_ADDRESS 0x04
  24:main.c        **** #define OLED_STRING 0
  25:main.c        **** // Define configuration variables
  26:main.c        **** #define FIFO_REG_BYPASS 0x00
  27:main.c        **** #define FIFO_REG_STREAM 0x80
  28:main.c        **** #define OVR_INT_ENABLE 0x02
  29:main.c        **** #define FIFO_ENABLE 0x40
  30:main.c        **** #define ODR_AX_ENABLE 0x47
ARM GAS  C:\Users\Matteo\AppData\Local\Temp\ccvDShDg.s 			page 2


  31:main.c        **** // String to print out messages over UART
  32:main.c        **** char message[100] = {'\0'};
  33:main.c        **** // startup strings
  34:main.c        **** char *stringList_1[] = {
  35:main.c        ****         "HeART",
  36:main.c        ****         "START"       
  37:main.c        ****     };
  38:main.c        **** char *stringList_2[] = {
  39:main.c        ****         "ATTACK",
  40:main.c        ****         "DEVICE"
  41:main.c        ****     };
  42:main.c        **** 
  43:main.c        **** int main(void)
  44:main.c        **** {   
  28              		.loc 1 44 0
  29              		.cfi_startproc
  30              		@ args = 0, pretend = 0, frame = 0
  31              		@ frame_needed = 0, uses_anonymous_args = 0
  32 0000 70B5     		push	{r4, r5, r6, lr}
  33              		.cfi_def_cfa_offset 16
  34              		.cfi_offset 4, -16
  35              		.cfi_offset 5, -12
  36              		.cfi_offset 6, -8
  37              		.cfi_offset 14, -4
  38 0002 82B0     		sub	sp, sp, #8
  39              		.cfi_def_cfa_offset 24
  45:main.c        ****     // Enable Global Interrupts
  46:main.c        ****     CyGlobalIntEnable; 
  40              		.loc 1 46 0
  41              		.syntax unified
  42              	@ 46 "main.c" 1
  43 0004 62B6     		CPSIE   i
  44              	@ 0 "" 2
  47:main.c        ****     
  48:main.c        ****     // Configure Peripherals
  49:main.c        ****     I2C_Peripheral_Start();
  45              		.loc 1 49 0
  46              		.thumb
  47              		.syntax unified
  48 0006 FFF7FEFF 		bl	I2C_Peripheral_Start
  49              	.LVL0:
  50:main.c        ****     UART_1_Start();
  50              		.loc 1 50 0
  51 000a FFF7FEFF 		bl	UART_1_Start
  52              	.LVL1:
  51:main.c        ****     isr_stream_1_StartEx(Custom_ISR_RX);
  53              		.loc 1 51 0
  54 000e 4448     		ldr	r0, .L4
  55 0010 FFF7FEFF 		bl	isr_stream_1_StartEx
  56              	.LVL2:
  52:main.c        ****     display_init(DISPLAY_ADDRESS); 
  57              		.loc 1 52 0
  58 0014 3D20     		movs	r0, #61
  59 0016 FFF7FEFF 		bl	display_init
  60              	.LVL3:
  53:main.c        ****     EEPROM_Start();
  61              		.loc 1 53 0
ARM GAS  C:\Users\Matteo\AppData\Local\Temp\ccvDShDg.s 			page 3


  62 001a FFF7FEFF 		bl	EEPROM_Start
  63              	.LVL4:
  54:main.c        ****     
  55:main.c        ****     // Enable Timers
  56:main.c        ****     Timer_3_Init();
  64              		.loc 1 56 0
  65 001e FFF7FEFF 		bl	Timer_3_Init
  66              	.LVL5:
  57:main.c        ****     Timer_3_Enable();
  67              		.loc 1 57 0
  68 0022 FFF7FEFF 		bl	Timer_3_Enable
  69              	.LVL6:
  58:main.c        ****     Timer_30_Init();
  70              		.loc 1 58 0
  71 0026 FFF7FEFF 		bl	Timer_30_Init
  72              	.LVL7:
  59:main.c        ****     Timer_30_Enable();
  73              		.loc 1 59 0
  74 002a FFF7FEFF 		bl	Timer_30_Enable
  75              	.LVL8:
  60:main.c        ****     Timer_1H_Init();
  76              		.loc 1 60 0
  77 002e FFF7FEFF 		bl	Timer_1H_Init
  78              	.LVL9:
  61:main.c        ****     Timer_1H_Enable();
  79              		.loc 1 61 0
  80 0032 FFF7FEFF 		bl	Timer_1H_Enable
  81              	.LVL10:
  62:main.c        ****     
  63:main.c        ****     // Enable Counters
  64:main.c        ****     isr_Counter_3_StartEx(Custom_ISR_Counter_3);
  82              		.loc 1 64 0
  83 0036 3B48     		ldr	r0, .L4+4
  84 0038 FFF7FEFF 		bl	isr_Counter_3_StartEx
  85              	.LVL11:
  65:main.c        ****     isr_Counter_30_StartEx(Custom_ISR_Counter_30);
  86              		.loc 1 65 0
  87 003c 3A48     		ldr	r0, .L4+8
  88 003e FFF7FEFF 		bl	isr_Counter_30_StartEx
  89              	.LVL12:
  66:main.c        ****     isr_Counter_1H_StartEx(Custom_ISR_Counter_1H);
  90              		.loc 1 66 0
  91 0042 3A48     		ldr	r0, .L4+12
  92 0044 FFF7FEFF 		bl	isr_Counter_1H_StartEx
  93              	.LVL13:
  67:main.c        ****     
  68:main.c        ****     // Allow for boot procedure to complete
  69:main.c        ****     CyDelay(5); 
  94              		.loc 1 69 0
  95 0048 0520     		movs	r0, #5
  96 004a FFF7FEFF 		bl	CyDelay
  97              	.LVL14:
  70:main.c        ****     
  71:main.c        ****     // Write EEPROM if needed
  72:main.c        ****     if (WRITE_EEPROM)
  73:main.c        ****     {   
  74:main.c        ****         // Update Temperature to optimize WRITE operation
ARM GAS  C:\Users\Matteo\AppData\Local\Temp\ccvDShDg.s 			page 4


  75:main.c        ****         EEPROM_UpdateTemperature();
  76:main.c        ****         // Write initial LED states
  77:main.c        ****         EEPROM_WriteByte(LOW,R_LED_EEPROM_ADDRESS);
  78:main.c        ****         EEPROM_WriteByte(LOW,G_LED_EEPROM_ADDRESS);
  79:main.c        ****         EEPROM_WriteByte(LOW,B_LED_EEPROM_ADDRESS);
  80:main.c        ****         // Write initial BUZZ state
  81:main.c        ****         EEPROM_WriteByte(LOW,BUZZ_EEPROM_ADDRESS);
  82:main.c        ****         // Write initial OLED string
  83:main.c        ****         EEPROM_WriteByte(OLED_STRING,OLED_EEPROM_ADDRESS);
  84:main.c        ****         // Write accelerometer bit resolution 
  85:main.c        ****         bit_resolution = NORMAL;
  86:main.c        ****         EEPROM_WriteByte(bit_resolution,BIT_RESOLUTION_ADDRESS);
  87:main.c        ****         // Write accelerometer g resolution
  88:main.c        ****         g_resolution = 0;
  89:main.c        ****         EEPROM_WriteByte(g_resolution,G_RESOLUTION_ADDRESS);
  90:main.c        ****         // Write power state of device
  91:main.c        ****         power_mode = NORMAL;
  92:main.c        ****         EEPROM_WriteByte(g_resolution,POWER_ADDRESS);
  93:main.c        ****     }
  94:main.c        ****     
  95:main.c        ****     // Set initial LED state
  96:main.c        ****     LED_R_Write(EEPROM_ReadByte(R_LED_EEPROM_ADDRESS));
  98              		.loc 1 96 0
  99 004e 0020     		movs	r0, #0
 100 0050 FFF7FEFF 		bl	EEPROM_ReadByte
 101              	.LVL15:
 102 0054 FFF7FEFF 		bl	LED_R_Write
 103              	.LVL16:
  97:main.c        ****     LED_G_Write(EEPROM_ReadByte(G_LED_EEPROM_ADDRESS));
 104              		.loc 1 97 0
 105 0058 0120     		movs	r0, #1
 106 005a FFF7FEFF 		bl	EEPROM_ReadByte
 107              	.LVL17:
 108 005e FFF7FEFF 		bl	LED_G_Write
 109              	.LVL18:
  98:main.c        ****     LED_B_Write(EEPROM_ReadByte(B_LED_EEPROM_ADDRESS));
 110              		.loc 1 98 0
 111 0062 0220     		movs	r0, #2
 112 0064 FFF7FEFF 		bl	EEPROM_ReadByte
 113              	.LVL19:
 114 0068 FFF7FEFF 		bl	LED_B_Write
 115              	.LVL20:
  99:main.c        ****     
 100:main.c        ****     // Write Startup String on the OLED
 101:main.c        ****     update_oled(stringList_1[EEPROM_ReadByte(OLED_EEPROM_ADDRESS)], stringList_2[EEPROM_ReadByte(OL
 116              		.loc 1 101 0
 117 006c 0420     		movs	r0, #4
 118 006e FFF7FEFF 		bl	EEPROM_ReadByte
 119              	.LVL21:
 120 0072 2F4C     		ldr	r4, .L4+16
 121 0074 54F82060 		ldr	r6, [r4, r0, lsl #2]
 122 0078 0420     		movs	r0, #4
 123 007a FFF7FEFF 		bl	EEPROM_ReadByte
 124              	.LVL22:
 125 007e 04EB8000 		add	r0, r4, r0, lsl #2
 126 0082 8168     		ldr	r1, [r0, #8]
 127 0084 2822     		movs	r2, #40
ARM GAS  C:\Users\Matteo\AppData\Local\Temp\ccvDShDg.s 			page 5


 128 0086 0192     		str	r2, [sp, #4]
 129 0088 2325     		movs	r5, #35
 130 008a 0095     		str	r5, [sp]
 131 008c 1423     		movs	r3, #20
 132 008e 3046     		mov	r0, r6
 133 0090 FFF7FEFF 		bl	update_oled
 134              	.LVL23:
 102:main.c        ****     
 103:main.c        ****     // Configure FIFO_CTRL_REG
 104:main.c        ****     // Ensure Bypass mode is selected
 105:main.c        ****     
 106:main.c        ****     error = I2C_Peripheral_WriteRegister(LIS3DH_DEVICE_ADDRESS,
 135              		.loc 1 106 0
 136 0094 0022     		movs	r2, #0
 137 0096 2E21     		movs	r1, #46
 138 0098 1820     		movs	r0, #24
 139 009a FFF7FEFF 		bl	I2C_Peripheral_WriteRegister
 140              	.LVL24:
 141 009e 254C     		ldr	r4, .L4+20
 142 00a0 2070     		strb	r0, [r4]
 107:main.c        ****                                          LIS3DH_FIFO_CTRL_REG,
 108:main.c        ****                                          FIFO_REG_BYPASS);
 109:main.c        ****     
 110:main.c        ****     /*
 111:main.c        ****     // Device 2
 112:main.c        ****     error = I2C_Peripheral_WriteRegister(LIS3DH_DEVICE_ADDRESS_2,
 113:main.c        ****                                          LIS3DH_FIFO_CTRL_REG,
 114:main.c        ****                                          FIFO_REG_BYPASS);
 115:main.c        ****     */
 116:main.c        ****         
 117:main.c        ****     // Configure CTRL_REG2
 118:main.c        ****     // Nothing to configure for the current operating mode
 119:main.c        ****     
 120:main.c        ****     // Configure CTRL_REG3
 121:main.c        ****     // Enable interrupt (INT1) on FIFO overrun
 122:main.c        ****     
 123:main.c        ****     error = I2C_Peripheral_WriteRegister(LIS3DH_DEVICE_ADDRESS,
 143              		.loc 1 123 0
 144 00a2 0222     		movs	r2, #2
 145 00a4 2221     		movs	r1, #34
 146 00a6 1820     		movs	r0, #24
 147 00a8 FFF7FEFF 		bl	I2C_Peripheral_WriteRegister
 148              	.LVL25:
 149 00ac 2070     		strb	r0, [r4]
 124:main.c        ****                                          LIS3DH_CTRL_REG3,
 125:main.c        ****                                          OVR_INT_ENABLE);
 126:main.c        ****     /*
 127:main.c        ****     // Device 2
 128:main.c        ****     error = I2C_Peripheral_WriteRegister(LIS3DH_DEVICE_ADDRESS_2,
 129:main.c        ****                                          LIS3DH_CTRL_REG3,
 130:main.c        ****                                          OVR_INT_ENABLE);
 131:main.c        ****     */
 132:main.c        ****     
 133:main.c        ****     // Configure CTRL_REG4
 134:main.c        ****     // Select g resolution from EEPROM
 135:main.c        ****     
 136:main.c        ****     CtrlReg4Config = EEPROM_ReadByte(G_RESOLUTION_ADDRESS);
ARM GAS  C:\Users\Matteo\AppData\Local\Temp\ccvDShDg.s 			page 6


 150              		.loc 1 136 0
 151 00ae 0620     		movs	r0, #6
 152 00b0 FFF7FEFF 		bl	EEPROM_ReadByte
 153              	.LVL26:
 154 00b4 0246     		mov	r2, r0
 155 00b6 204B     		ldr	r3, .L4+24
 156 00b8 1870     		strb	r0, [r3]
 137:main.c        ****     
 138:main.c        ****     error = I2C_Peripheral_WriteRegister(LIS3DH_DEVICE_ADDRESS,
 157              		.loc 1 138 0
 158 00ba 2946     		mov	r1, r5
 159 00bc 1820     		movs	r0, #24
 160 00be FFF7FEFF 		bl	I2C_Peripheral_WriteRegister
 161              	.LVL27:
 162 00c2 2070     		strb	r0, [r4]
 139:main.c        ****                                          LIS3DH_CTRL_REG4,
 140:main.c        ****                                          CtrlReg4Config);
 141:main.c        ****     
 142:main.c        ****     /*
 143:main.c        ****     // Device 2
 144:main.c        ****     error = I2C_Peripheral_WriteRegister(LIS3DH_DEVICE_ADDRESS_2,
 145:main.c        ****                                          LIS3DH_CTRL_REG4,
 146:main.c        ****                                          CtrlReg4Config);
 147:main.c        ****     */
 148:main.c        ****     
 149:main.c        ****     // Configure CTRL_REG5
 150:main.c        ****     // Enable FIFO 
 151:main.c        ****     
 152:main.c        ****     error = I2C_Peripheral_WriteRegister(LIS3DH_DEVICE_ADDRESS,
 163              		.loc 1 152 0
 164 00c4 4022     		movs	r2, #64
 165 00c6 2421     		movs	r1, #36
 166 00c8 1820     		movs	r0, #24
 167 00ca FFF7FEFF 		bl	I2C_Peripheral_WriteRegister
 168              	.LVL28:
 169 00ce 2070     		strb	r0, [r4]
 153:main.c        ****                                          LIS3DH_CTRL_REG5,
 154:main.c        ****                                          FIFO_ENABLE);
 155:main.c        ****     
 156:main.c        ****     /*
 157:main.c        ****     // Device 2
 158:main.c        ****     error = I2C_Peripheral_WriteRegister(LIS3DH_DEVICE_ADDRESS_2,
 159:main.c        ****                                          LIS3DH_CTRL_REG5,
 160:main.c        ****                                          FIFO_ENABLE);
 161:main.c        ****     */
 162:main.c        ****     
 163:main.c        ****     // Configure CTRL_REG6
 164:main.c        ****     // Nothing to configure for the current operating mode
 165:main.c        ****     
 166:main.c        ****     // Configure CTRL_REG1
 167:main.c        ****     // Initialize from memory to 0x00
 168:main.c        ****     
 169:main.c        ****     CtrlReg1Config &= EEPROM_ReadByte(POWER_ADDRESS);
 170              		.loc 1 169 0
 171 00d0 0720     		movs	r0, #7
 172 00d2 FFF7FEFF 		bl	EEPROM_ReadByte
 173              	.LVL29:
ARM GAS  C:\Users\Matteo\AppData\Local\Temp\ccvDShDg.s 			page 7


 174 00d6 194B     		ldr	r3, .L4+28
 175 00d8 1A78     		ldrb	r2, [r3]	@ zero_extendqisi2
 176 00da 0240     		ands	r2, r2, r0
 177 00dc 1A70     		strb	r2, [r3]
 170:main.c        ****     
 171:main.c        ****     error = I2C_Peripheral_WriteRegister(LIS3DH_DEVICE_ADDRESS,
 178              		.loc 1 171 0
 179 00de 2021     		movs	r1, #32
 180 00e0 1820     		movs	r0, #24
 181 00e2 FFF7FEFF 		bl	I2C_Peripheral_WriteRegister
 182              	.LVL30:
 183 00e6 2070     		strb	r0, [r4]
 172:main.c        ****                                          LIS3DH_CTRL_REG1,
 173:main.c        ****                                          CtrlReg1Config);
 174:main.c        ****     
 175:main.c        ****     /*
 176:main.c        ****     // Device 2
 177:main.c        ****     error = I2C_Peripheral_WriteRegister(LIS3DH_DEVICE_ADDRESS_2,
 178:main.c        ****                                          LIS3DH_CTRL_REG1,
 179:main.c        ****                                          CtrlReg1Config);
 180:main.c        ****     */
 181:main.c        ****     
 182:main.c        ****     // Now configure ODR and enable X, Y and Z axes
 183:main.c        ****     // Select data rate: 50Hz -> CtrlReg1Config |= 0x47;
 184:main.c        ****     // Select data rate: 200Hz -> CtrlReg1Config |= 0x67;
 185:main.c        ****     // Select data rate: 400Hz -> CtrlReg1Config |= 0x77;
 186:main.c        ****     
 187:main.c        ****     error = I2C_Peripheral_WriteRegister(LIS3DH_DEVICE_ADDRESS,
 184              		.loc 1 187 0
 185 00e8 4722     		movs	r2, #71
 186 00ea 2021     		movs	r1, #32
 187 00ec 1820     		movs	r0, #24
 188 00ee FFF7FEFF 		bl	I2C_Peripheral_WriteRegister
 189              	.LVL31:
 190 00f2 2070     		strb	r0, [r4]
 188:main.c        ****                                          LIS3DH_CTRL_REG1,
 189:main.c        ****                                          ODR_AX_ENABLE);
 190:main.c        ****     /*
 191:main.c        ****     // Device 2
 192:main.c        ****     error = I2C_Peripheral_WriteRegister(LIS3DH_DEVICE_ADDRESS_2,
 193:main.c        ****                                          LIS3DH_CTRL_REG1,
 194:main.c        ****                                          ODR_AX_ENABLE);
 195:main.c        ****     */
 196:main.c        ****     
 197:main.c        ****     // Enable Interrupts for the accelerometers
 198:main.c        ****     isr_acc_1_StartEx(custom_acc_1_Interrupt);
 191              		.loc 1 198 0
 192 00f4 1248     		ldr	r0, .L4+32
 193 00f6 FFF7FEFF 		bl	isr_acc_1_StartEx
 194              	.LVL32:
 199:main.c        ****     
 200:main.c        ****     /*
 201:main.c        ****     isr_acc_2_StartEx(custom_acc_2_Interrupt);
 202:main.c        ****     */
 203:main.c        ****     
 204:main.c        ****     // Enable stream mode
 205:main.c        **** 
ARM GAS  C:\Users\Matteo\AppData\Local\Temp\ccvDShDg.s 			page 8


 206:main.c        ****     error = I2C_Peripheral_WriteRegister(LIS3DH_DEVICE_ADDRESS,
 195              		.loc 1 206 0
 196 00fa 8022     		movs	r2, #128
 197 00fc 2E21     		movs	r1, #46
 198 00fe 1820     		movs	r0, #24
 199 0100 FFF7FEFF 		bl	I2C_Peripheral_WriteRegister
 200              	.LVL33:
 201 0104 2070     		strb	r0, [r4]
 207:main.c        ****                                          LIS3DH_FIFO_CTRL_REG,
 208:main.c        ****                                          FIFO_REG_STREAM);
 209:main.c        ****     
 210:main.c        ****     /*
 211:main.c        ****     // Device 2
 212:main.c        ****     error = I2C_Peripheral_WriteRegister(LIS3DH_DEVICE_ADDRESS_2,
 213:main.c        ****                                          LIS3DH_FIFO_CTRL_REG,
 214:main.c        ****                                          FIFO_REG_STREAM);
 215:main.c        ****     */
 216:main.c        ****     
 217:main.c        ****     // Configure Timers and ADC
 218:main.c        ****     Timer_1H_Start();
 202              		.loc 1 218 0
 203 0106 FFF7FEFF 		bl	Timer_1H_Start
 204              	.LVL34:
 219:main.c        ****     uint16 start_counter_bat=10;
 220:main.c        ****     // Battery is initialized = 100%, but after 10 seconds from reset the battery is read
 221:main.c        ****     Timer_1H_WriteCounter(start_counter_bat); 
 205              		.loc 1 221 0
 206 010a 0A20     		movs	r0, #10
 207 010c FFF7FEFF 		bl	Timer_1H_WriteCounter
 208              	.LVL35:
 222:main.c        ****     ADC_DelSig_Start();
 209              		.loc 1 222 0
 210 0110 FFF7FEFF 		bl	ADC_DelSig_Start
 211              	.LVL36:
 223:main.c        ****     
 224:main.c        ****     // Start PWM for LED_R to signal lack of connection
 225:main.c        ****     PWM_LED_Start(); 
 212              		.loc 1 225 0
 213 0114 FFF7FEFF 		bl	PWM_LED_Start
 214              	.LVL37:
 226:main.c        ****     
 227:main.c        ****     // Set ALARM_ENABLE flag
 228:main.c        ****     ALARM_ENABLED=1;
 215              		.loc 1 228 0
 216 0118 0122     		movs	r2, #1
 217 011a 0A4B     		ldr	r3, .L4+36
 218 011c 1A60     		str	r2, [r3]
 219              	.L2:
 220 011e FEE7     		b	.L2
 221              	.L5:
 222              		.align	2
 223              	.L4:
 224 0120 00000000 		.word	Custom_ISR_RX
 225 0124 00000000 		.word	Custom_ISR_Counter_3
 226 0128 00000000 		.word	Custom_ISR_Counter_30
 227 012c 00000000 		.word	Custom_ISR_Counter_1H
 228 0130 00000000 		.word	.LANCHOR0
ARM GAS  C:\Users\Matteo\AppData\Local\Temp\ccvDShDg.s 			page 9


 229 0134 00000000 		.word	error
 230 0138 00000000 		.word	CtrlReg4Config
 231 013c 00000000 		.word	CtrlReg1Config
 232 0140 00000000 		.word	custom_acc_1_Interrupt
 233 0144 00000000 		.word	ALARM_ENABLED
 234              		.cfi_endproc
 235              	.LFE64:
 236              		.size	main, .-main
 237              		.global	stringList_2
 238              		.global	stringList_1
 239              		.global	message
 240              		.comm	error,1,1
 241              		.comm	CtrlReg4Config,1,1
 242              		.comm	CtrlReg1Config,1,1
 243              		.comm	LowPowerBuffer,3,4
 244              		.comm	G_ResolutionBuffer,3,4
 245              		.comm	Bit_ResolutionBuffer,3,4
 246              		.comm	power_mode,1,1
 247              		.comm	g_resolution,1,1
 248              		.comm	bit_resolution,1,1
 249              		.comm	ALARM_ENABLED,4,4
 250              		.data
 251              		.align	2
 252              		.set	.LANCHOR0,. + 0
 253              		.type	stringList_1, %object
 254              		.size	stringList_1, 8
 255              	stringList_1:
 256 0000 10000000 		.word	.LC2
 257 0004 18000000 		.word	.LC3
 258              		.type	stringList_2, %object
 259              		.size	stringList_2, 8
 260              	stringList_2:
 261 0008 00000000 		.word	.LC0
 262 000c 08000000 		.word	.LC1
 263              		.section	.rodata.str1.4,"aMS",%progbits,1
 264              		.align	2
 265              	.LC0:
 266 0000 41545441 		.ascii	"ATTACK\000"
 266      434B00
 267 0007 00       		.space	1
 268              	.LC1:
 269 0008 44455649 		.ascii	"DEVICE\000"
 269      434500
 270 000f 00       		.space	1
 271              	.LC2:
 272 0010 48654152 		.ascii	"HeART\000"
 272      5400
 273 0016 0000     		.space	2
 274              	.LC3:
 275 0018 53544152 		.ascii	"START\000"
 275      5400
 276              		.bss
 277              		.align	2
 278              		.type	message, %object
 279              		.size	message, 100
 280              	message:
 281 0000 00000000 		.space	100
ARM GAS  C:\Users\Matteo\AppData\Local\Temp\ccvDShDg.s 			page 10


 281      00000000 
 281      00000000 
 281      00000000 
 281      00000000 
 282              		.text
 283              	.Letext0:
 284              		.file 2 "c:\\program files (x86)\\cypress\\psoc creator\\4.4\\psoc creator\\import\\gnu\\arm\\5.4.
 285              		.file 3 "c:\\program files (x86)\\cypress\\psoc creator\\4.4\\psoc creator\\import\\gnu\\arm\\5.4.
 286              		.file 4 "ErrorCodes.h"
 287              		.file 5 "Generated_Source\\PSoC5/cytypes.h"
 288              		.file 6 "global_variables.h"
 289              		.file 7 "Generated_Source\\PSoC5/core_cm3.h"
 290              		.file 8 "I2C_Interface.h"
 291              		.file 9 "Generated_Source\\PSoC5/UART_1.h"
 292              		.file 10 "Generated_Source\\PSoC5/isr_stream_1.h"
 293              		.file 11 "ssd1306.h"
 294              		.file 12 "Generated_Source\\PSoC5/EEPROM.h"
 295              		.file 13 "Generated_Source\\PSoC5/Timer_3.h"
 296              		.file 14 "Generated_Source\\PSoC5/Timer_30.h"
 297              		.file 15 "Generated_Source\\PSoC5/Timer_1H.h"
 298              		.file 16 "Generated_Source\\PSoC5/isr_Counter_3.h"
 299              		.file 17 "Generated_Source\\PSoC5/isr_Counter_30.h"
 300              		.file 18 "Generated_Source\\PSoC5/isr_Counter_1H.h"
 301              		.file 19 "Generated_Source\\PSoC5/CyLib.h"
 302              		.file 20 "Generated_Source\\PSoC5/LED_R.h"
 303              		.file 21 "Generated_Source\\PSoC5/LED_G.h"
 304              		.file 22 "Generated_Source\\PSoC5/LED_B.h"
 305              		.file 23 "InterruptRoutines.h"
 306              		.file 24 "Generated_Source\\PSoC5/isr_acc_1.h"
 307              		.file 25 "Generated_Source\\PSoC5/ADC_DelSig.h"
 308              		.file 26 "Generated_Source\\PSoC5/PWM_LED.h"